; Function Attrs: mustprogress uwtable
define internal void @_ZN9grpc_core12_GLOBAL__N_16GrpcLb6Picker21SubchannelCallTracker6FinishENS_19LoadBalancingPolicy30SubchannelCallTrackerInterface10FinishArgsE(ptr noundef nonnull readonly align 8 captures(none) dereferenceable(24) %0, ptr noundef readonly captures(none) %1) unnamed_addr #3 align 2 personality ptr @__gxx_personality_v0 {
  %3 = alloca %"struct.grpc_core::LoadBalancingPolicy::SubchannelCallTrackerInterface::FinishArgs", align 8
  %4 = getelementptr inbounds nuw i8, ptr %0, i64 16
  %5 = load ptr, ptr %4, align 8, !tbaa !615
  %.not = icmp eq ptr %5, null
  br i1 %.not, label %_ZN9grpc_core19LoadBalancingPolicy30SubchannelCallTrackerInterface10FinishArgsD2Ev.exit, label %6

6:                                                ; preds = %2
  call void @llvm.memcpy.p0.p0.i64(ptr noundef nonnull align 8 dereferenceable(40) %3, ptr noundef nonnull align 8 dereferenceable(40) %1, i64 16, i1 false), !tbaa.struct !626
  %7 = getelementptr inbounds nuw i8, ptr %3, i64 16
  %8 = getelementptr inbounds nuw i8, ptr %1, i64 16
  %9 = load i64, ptr %8, align 8, !tbaa !75
  store i64 %9, ptr %7, align 8, !tbaa !75
  %10 = and i64 %9, 1
  %.not.i.i.i = icmp eq i64 %10, 0
  br i1 %.not.i.i.i, label %11, label %_ZN9grpc_core19LoadBalancingPolicy30SubchannelCallTrackerInterface10FinishArgsC2ERKS2_.exit

11:                                               ; preds = %6
  %12 = inttoptr i64 %9 to ptr
  %13 = atomicrmw add ptr %12, i32 1 monotonic, align 4
  br label %_ZN9grpc_core19LoadBalancingPolicy30SubchannelCallTrackerInterface10FinishArgsC2ERKS2_.exit

_ZN9grpc_core19LoadBalancingPolicy30SubchannelCallTrackerInterface10FinishArgsC2ERKS2_.exit: ; preds = %6, %11
  %14 = getelementptr inbounds nuw i8, ptr %3, i64 24
  %15 = getelementptr inbounds nuw i8, ptr %1, i64 24
  call void @llvm.memcpy.p0.p0.i64(ptr noundef nonnull align 8 dereferenceable(16) %14, ptr noundef nonnull align 8 dereferenceable(16) %15, i64 16, i1 false)
  %16 = load ptr, ptr %5, align 8, !tbaa !6
  %17 = getelementptr inbounds nuw i8, ptr %16, i64 24
  %18 = load ptr, ptr %17, align 8
  invoke void %18(ptr noundef nonnull align 8 dereferenceable(8) %5, ptr noundef nonnull %3)
          to label %19 unwind label %27

19:                                               ; preds = %_ZN9grpc_core19LoadBalancingPolicy30SubchannelCallTrackerInterface10FinishArgsC2ERKS2_.exit
  %20 = load i64, ptr %7, align 8, !tbaa !75
  %21 = and i64 %20, 1
  %.not.i.i.i2 = icmp eq i64 %21, 0
  br i1 %.not.i.i.i2, label %22, label %_ZN9grpc_core19LoadBalancingPolicy30SubchannelCallTrackerInterface10FinishArgsD2Ev.exit

22:                                               ; preds = %19
  %23 = inttoptr i64 %20 to ptr
  invoke void @_ZNK4absl12lts_2024072215status_internal9StatusRep5UnrefEv(ptr noundef nonnull align 8 dereferenceable(48) %23)
          to label %_ZN9grpc_core19LoadBalancingPolicy30SubchannelCallTrackerInterface10FinishArgsD2Ev.exit unwind label %24

24:                                               ; preds = %22
  %25 = landingpad { ptr, i32 }
          catch ptr null
  %26 = extractvalue { ptr, i32 } %25, 0
  call void @__clang_call_terminate(ptr %26) #45
  unreachable

27:                                               ; preds = %_ZN9grpc_core19LoadBalancingPolicy30SubchannelCallTrackerInterface10FinishArgsC2ERKS2_.exit
  %28 = landingpad { ptr, i32 }
          cleanup
  call void @_ZN9grpc_core19LoadBalancingPolicy30SubchannelCallTrackerInterface10FinishArgsD2Ev(ptr noundef nonnull align 8 dereferenceable(40) %3) #42
  resume { ptr, i32 } %28

_ZN9grpc_core19LoadBalancingPolicy30SubchannelCallTrackerInterface10FinishArgsD2Ev.exit: ; preds = %22, %19, %2
  ret void
}